(lp0
(lp1
(F1.3927055
I0
tp2
a(F1.3927055
I1
tp3
a(F1.4109675
I1
tp4
a(F1.4109675
I0
tp5
a(F1.3927055
I0
tp6
aa(lp7
(F1.4109675
I0
tp8
a(F1.4153505
I1
tp9
a(F1.4442055
I1
tp10
a(F1.4474925
I0
tp11
a(F1.4109675
I0
tp12
aa(lp13
(F1.4474925
I0
tp14
a(F1.4474925
I1
tp15
a(F1.5205405
I1
tp16
a(F1.5205405
I0
tp17
a(F1.4474925
I0
tp18
aa(lp19
(F1.5205405
I0
tp20
a(F1.5311325
I1
tp21
a(F1.5892065
I1
tp22
a(F1.6008945
I0
tp23
a(F1.5205405
I0
tp24
aa(lp25
(F1.6008945
I0
tp26
a(F1.6008945
I1
tp27
a(F1.7104665
I1
tp28
a(F1.7104665
I0
tp29
a(F1.6008945
I0
tp30
aa(lp31
(F1.7104665
I0
tp32
a(F1.7104665
I1
tp33
a(F1.8174825
I1
tp34
a(F1.8309965
I0
tp35
a(F1.7104665
I0
tp36
aa(lp37
(F1.8309965
I0
tp38
a(F1.8309965
I1
tp39
a(F1.9551795
I1
tp40
a(F1.9551795
I0
tp41
a(F1.8309965
I0
tp42
aa(lp43
(F1.9551795
I0
tp44
a(F1.9803805
I1
tp45
a(F2.1977005
I1
tp46
a(F2.2521215
I0
tp47
a(F1.9551795
I0
tp48
aa(lp49
(F1.9588315
I0
tp50
a(F1.9588315
I1
tp51
a(F2.0318805
I1
tp52
a(F2.0318805
I0
tp53
a(F1.9588315
I0
tp54
aa(lp55
(F2.3423365
I0
tp56
a(F2.3595025
I1
tp57
a(F2.4690755
I1
tp58
a(F2.4884335
I0
tp59
a(F2.3423365
I0
tp60
aa(lp61
(F2.0318805
I0
tp62
a(F2.0318805
I1
tp63
a(F2.1597155
I1
tp64
a(F2.1597155
I0
tp65
a(F2.0318805
I0
tp66
aa(lp67
(F2.1597155
I0
tp68
a(F2.1670205
I1
tp69
a(F2.2400685
I1
tp70
a(F2.2510255
I0
tp71
a(F2.1597155
I0
tp72
aa(lp73
(F-0.4700315
I0
tp74
a(F-0.4700315
I1
tp75
a(F0.0778325
I1
tp76
a(F0.0778325
I0
tp77
a(F-0.4700315
I0
tp78
aa(lp79
(F0.0778325
I0
tp80
a(F0.1596475
I1
tp81
a(F0.5471695
I1
tp82
a(F0.6439585
I0
tp83
a(F0.0778325
I0
tp84
aa(lp85
(F0.6439585
I0
tp86
a(F0.6439585
I1
tp87
a(F0.7462265
I1
tp88
a(F0.7462265
I0
tp89
a(F0.6439585
I0
tp90
aa(lp91
(F0.7462265
I0
tp92
a(F0.7626625
I1
tp93
a(F0.9058375
I1
tp94
a(F0.9295785
I0
tp95
a(F0.7462265
I0
tp96
aa(lp97
(F0.9295785
I0
tp98
a(F0.9295785
I1
tp99
a(F0.9872865
I1
tp100
a(F0.9872865
I0
tp101
a(F0.9295785
I0
tp102
aa(lp103
(F0.9872865
I0
tp104
a(F1.0095665
I1
tp105
a(F1.1037985
I1
tp106
a(F1.1224265
I0
tp107
a(F0.9872865
I0
tp108
aa(lp109
(F1.1224265
I0
tp110
a(F1.1224265
I1
tp111
a(F1.1560295
I1
tp112
a(F1.1560295
I0
tp113
a(F1.1224265
I0
tp114
aa(lp115
(F1.1560295
I0
tp116
a(F1.1779435
I1
tp117
a(F1.3021265
I1
tp118
a(F1.3247705
I0
tp119
a(F1.1560295
I0
tp120
aa(lp121
(F1.3247705
I0
tp122
a(F1.3247705
I1
tp123
a(F1.4789035
I1
tp124
a(F1.4789035
I0
tp125
a(F1.3247705
I0
tp126
aa(lp127
(F1.4789035
I0
tp128
a(F1.4949745
I1
tp129
a(F1.5815365
I1
tp130
a(F1.6001645
I0
tp131
a(F1.4789035
I0
tp132
aa(lp133
(F1.6001645
I0
tp134
a(F1.6001645
I1
tp135
a(F1.6103915
I1
tp136
a(F1.6103915
I0
tp137
a(F1.6001645
I0
tp138
aa(lp139
(F1.6103915
I0
tp140
a(F1.6191565
I1
tp141
a(F1.6976825
I1
tp142
a(F1.7104665
I0
tp143
a(F1.6103915
I0
tp144
aa(lp145
(F0.8083175
I0
tp146
a(F0.8083175
I1
tp147
a(F1.4292305
I1
tp148
a(F1.4292305
I0
tp149
a(F0.8083175
I0
tp150
aa(lp151
(F1.9223075
I0
tp152
a(F1.9537185
I1
tp153
a(F2.0939715
I1
tp154
a(F2.1107725
I0
tp155
a(F1.9223075
I0
tp156
aa(lp157
(F-0.6526525
I0
tp158
a(F-0.6526525
I1
tp159
a(F0.3335025
I1
tp160
a(F0.3335025
I0
tp161
a(F-0.6526525
I0
tp162
aa(lp163
(F0.2604545
I0
tp164
a(F0.3050135
I1
tp165
a(F0.5643365
I1
tp166
a(F0.6256965
I0
tp167
a(F0.2604545
I0
tp168
aa(lp169
(F-1.9310015
I0
tp170
a(F-1.9310015
I1
tp171
a(F0.5161235
I1
tp172
a(F0.5161235
I0
tp173
a(F-1.9310015
I0
tp174
aa(lp175
(F-0.1047895
I0
tp176
a(F-0.0021545
I1
tp177
a(F0.7246775
I1
tp178
a(F0.8083175
I0
tp179
a(F-0.1047895
I0
tp180
aa(lp181
(F0.8083175
I0
tp182
a(F0.8083175
I1
tp183
a(F1.4657545
I1
tp184
a(F1.4657545
I0
tp185
a(F0.8083175
I0
tp186
aa(lp187
(F0.9909395
I0
tp188
a(F1.0617965
I1
tp189
a(F1.3116225
I1
tp190
a(F1.3561815
I0
tp191
a(F0.9909395
I0
tp192
aa(lp193
(F1.9628495
I0
tp194
a(F1.9628495
I1
tp195
a(F1.9953555
I1
tp196
a(F1.9953555
I0
tp197
a(F1.9628495
I0
tp198
aa(lp199
(F0.6256965
I0
tp200
a(F0.6965535
I1
tp201
a(F0.9511275
I1
tp202
a(F0.9909395
I0
tp203
a(F0.6256965
I0
tp204
aa(lp205
(F0.9909395
I0
tp206
a(F0.9909395
I1
tp207
a(F1.1370365
I1
tp208
a(F1.1370365
I0
tp209
a(F0.9909395
I0
tp210
aa(lp211
(F1.1370365
I0
tp212
a(F1.1636995
I1
tp213
a(F1.2663315
I1
tp214
a(F1.2831335
I0
tp215
a(F1.1370365
I0
tp216
aa(lp217
(F0.2604545
I0
tp218
a(F0.2604545
I1
tp219
a(F0.8083175
I1
tp220
a(F0.8083175
I0
tp221
a(F0.2604545
I0
tp222
aa(lp223
(F1.4292305
I0
tp224
a(F1.4745205
I1
tp225
a(F1.7126585
I1
tp226
a(F1.7579485
I0
tp227
a(F1.4292305
I0
tp228
aa(lp229
(F0.6256965
I0
tp230
a(F0.6256965
I1
tp231
a(F0.9909395
I1
tp232
a(F0.9909395
I0
tp233
a(F0.6256965
I0
tp234
aa(lp235
(F-4.8529415
I0
tp236
a(F-4.4015025
I1
tp237
a(F-2.0201215
I1
tp238
a(F-1.7483805
I0
tp239
a(F-4.8529415
I0
tp240
aa(lp241
(F-4.8529415
I0
tp242
a(F-4.8529415
I1
tp243
a(F-1.5657595
I1
tp244
a(F-1.5657595
I0
tp245
a(F-4.8529415
I0
tp246
aa(lp247
(F-2.8441075
I0
tp248
a(F-2.6571045
I1
tp249
a(F-1.8922865
I1
tp250
a(F-1.7483805
I0
tp251
a(F-2.8441075
I0
tp252
aa(lp253
(F-1.5657595
I0
tp254
a(F-1.5657595
I1
tp255
a(F-0.4700315
I1
tp256
a(F-0.4700315
I0
tp257
a(F-1.5657595
I0
tp258
aa(lp259
(F-1.5657595
I0
tp260
a(F-1.4087045
I1
tp261
a(F-0.2121705
I1
tp262
a(F0.0778325
I0
tp263
a(F-1.5657595
I0
tp264
aa(lp265
(F-0.5430805
I0
tp266
a(F-0.5430805
I1
tp267
a(F0.3517645
I1
tp268
a(F0.3517645
I0
tp269
a(F-0.5430805
I0
tp270
aa(lp271
(F-0.4700315
I0
tp272
a(F-0.3681285
I1
tp273
a(F0.0080715
I1
tp274
a(F0.0778325
I0
tp275
a(F-0.4700315
I0
tp276
aa(lp277
(F-0.2874105
I0
tp278
a(F-0.2874105
I1
tp279
a(F0.7717935
I1
tp280
a(F0.7717935
I0
tp281
a(F-0.2874105
I0
tp282
aa(lp283
(F-0.1047895
I0
tp284
a(F0.0650495
I1
tp285
a(F0.7129895
I1
tp286
a(F0.8083175
I0
tp287
a(F-0.1047895
I0
tp288
aa(lp289
(F0.2604545
I0
tp290
a(F0.2604545
I1
tp291
a(F0.6439585
I1
tp292
a(F0.6439585
I0
tp293
a(F0.2604545
I0
tp294
aa(lp295
(F0.3335025
I0
tp296
a(F0.4284665
I1
tp297
a(F0.8046655
I1
tp298
a(F0.8813665
I0
tp299
a(F0.3335025
I0
tp300
aa(lp301
(F0.5161235
I0
tp302
a(F0.5161235
I1
tp303
a(F0.9909395
I1
tp304
a(F0.9909395
I0
tp305
a(F0.5161235
I0
tp306
aa(lp307
(F0.5526485
I0
tp308
a(F0.7305215
I1
tp309
a(F1.4383615
I1
tp310
a(F1.5241935
I0
tp311
a(F0.5526485
I0
tp312
aa(lp313
(F0.6439585
I0
tp314
a(F0.6439585
I1
tp315
a(F0.8631045
I1
tp316
a(F0.8631045
I0
tp317
a(F0.6439585
I0
tp318
aa(lp319
(F0.7717935
I0
tp320
a(F0.7951695
I1
tp321
a(F0.9766945
I1
tp322
a(F1.0274635
I0
tp323
a(F0.7717935
I0
tp324
aa(lp325
(F0.8083175
I0
tp326
a(F0.8083175
I1
tp327
a(F0.9909395
I1
tp328
a(F0.9909395
I0
tp329
a(F0.8083175
I0
tp330
aa(lp331
(F0.8083175
I0
tp332
a(F0.8557995
I1
tp333
a(F1.1235215
I1
tp334
a(F1.1735605
I0
tp335
a(F0.8083175
I0
tp336
aa(lp337
(F0.8685835
I0
tp338
a(F0.8685835
I1
tp339
a(F0.9909395
I1
tp340
a(F0.9909395
I0
tp341
a(F0.8685835
I0
tp342
aa(lp343
(F0.8813665
I0
tp344
a(F0.9138735
I1
tp345
a(F1.0873635
I1
tp346
a(F1.1370365
I0
tp347
a(F0.8813665
I0
tp348
aa(lp349
(F0.9544145
I0
tp350
a(F0.9544145
I1
tp351
a(F1.0274635
I1
tp352
a(F1.0274635
I0
tp353
a(F0.9544145
I0
tp354
aa(lp355
(F0.9909395
I0
tp356
a(F1.0000705
I1
tp357
a(F1.0665435
I1
tp358
a(F1.0822495
I0
tp359
a(F0.9909395
I0
tp360
aa(lp361
(F0.9909395
I0
tp362
a(F0.9909395
I1
tp363
a(F1.1370365
I1
tp364
a(F1.1370365
I0
tp365
a(F0.9909395
I0
tp366
aa(lp367
(F0.9909395
I0
tp368
a(F1.0238115
I1
tp369
a(F1.1520115
I1
tp370
a(F1.1735605
I0
tp371
a(F0.9909395
I0
tp372
aa(lp373
(F0.9909395
I0
tp374
a(F0.9909395
I1
tp375
a(F1.2100845
I1
tp376
a(F1.2100845
I0
tp377
a(F0.9909395
I0
tp378
aa(lp379
(F0.9909395
I0
tp380
a(F1.0281935
I1
tp381
a(F1.2999345
I1
tp382
a(F1.3561815
I0
tp383
a(F0.9909395
I0
tp384
aa(lp385
(F0.9909395
I0
tp386
a(F0.9909395
I1
tp387
a(F1.3561815
I1
tp388
a(F1.3561815
I0
tp389
a(F0.9909395
I0
tp390
aa(lp391
(F0.9909395
I0
tp392
a(F1.0460905
I1
tp393
a(F1.3916105
I1
tp394
a(F1.4840165
I0
tp395
a(F0.9909395
I0
tp396
aa(lp397
(F1.0822495
I0
tp398
a(F1.0822495
I1
tp399
a(F1.1918225
I1
tp400
a(F1.1918225
I0
tp401
a(F1.0822495
I0
tp402
aa(lp403
(F1.1187735
I0
tp404
a(F1.1275395
I1
tp405
a(F1.1815955
I1
tp406
a(F1.1918225
I0
tp407
a(F1.1187735
I0
tp408
aa(lp409
(F1.1370365
I0
tp410
a(F1.1370365
I1
tp411
a(F1.3561815
I1
tp412
a(F1.3561815
I0
tp413
a(F1.1370365
I0
tp414
aa(lp415
(F1.1370365
I0
tp416
a(F1.1878045
I1
tp417
a(F1.5110445
I1
tp418
a(F1.5935895
I0
tp419
a(F1.1370365
I0
tp420
aa(lp421
(F1.1735605
I0
tp422
a(F1.1735605
I1
tp423
a(F1.3561815
I1
tp424
a(F1.3561815
I0
tp425
a(F1.1735605
I0
tp426
aa(lp427
(F1.1918225
I0
tp428
a(F1.1994925
I1
tp429
a(F1.2652355
I1
tp430
a(F1.2831335
I0
tp431
a(F1.1918225
I0
tp432
aa(lp433
(F1.2100845
I0
tp434
a(F1.2100845
I1
tp435
a(F1.2831335
I1
tp436
a(F1.2831335
I0
tp437
a(F1.2100845
I0
tp438
aa(lp439
(F1.2305385
I0
tp440
a(F1.2393045
I1
tp441
a(F1.2736365
I1
tp442
a(F1.2787505
I0
tp443
a(F1.2305385
I0
tp444
aa(lp445
(F1.2831335
I0
tp446
a(F1.2831335
I1
tp447
a(F1.4657545
I1
tp448
a(F1.4657545
I0
tp449
a(F1.2831335
I0
tp450
aa(lp451
(F1.2831335
I0
tp452
a(F1.3189275
I1
tp453
a(F1.4358045
I1
tp454
a(F1.4657545
I0
tp455
a(F1.2831335
I0
tp456
aa(lp457
(F1.3561815
I0
tp458
a(F1.3561815
I1
tp459
a(F1.4840165
I1
tp460
a(F1.4840165
I0
tp461
a(F1.3561815
I0
tp462
aa(lp463
(F1.3927055
I0
tp464
a(F1.4131595
I1
tp465
a(F1.4909565
I1
tp466
a(F1.5022785
I0
tp467
a(F1.3927055
I0
tp468
aa(lp469
(F1.4584505
I0
tp470
a(F1.4584505
I1
tp471
a(F1.5241935
I1
tp472
a(F1.5241935
I0
tp473
a(F1.4584505
I0
tp474
aa(lp475
(F1.4657545
I0
tp476
a(F1.4741545
I1
tp477
a(F1.5304025
I1
tp478
a(F1.5388025
I0
tp479
a(F1.4657545
I0
tp480
aa(lp481
(F1.5070265
I0
tp482
a(F1.5070265
I1
tp483
a(F1.6008945
I1
tp484
a(F1.6008945
I0
tp485
a(F1.5070265
I0
tp486
aa(lp487
(F1.5241935
I0
tp488
a(F1.5358815
I1
tp489
a(F1.5913985
I1
tp490
a(F1.6008945
I0
tp491
a(F1.5241935
I0
tp492
aa(lp493
(F1.5241935
I0
tp494
a(F1.5241935
I1
tp495
a(F1.7104665
I1
tp496
a(F1.7104665
I0
tp497
a(F1.5241935
I0
tp498
aa(lp499
(F1.5241935
I0
tp500
a(F1.5709445
I1
tp501
a(F1.8036035
I1
tp502
a(F1.8397625
I0
tp503
a(F1.5241935
I0
tp504
aa(lp505
(F1.6008945
I0
tp506
a(F1.6008945
I1
tp507
a(F1.6702905
I1
tp508
a(F1.6702905
I0
tp509
a(F1.6008945
I0
tp510
aa(lp511
(F1.6008945
I0
tp512
a(F1.6228085
I1
tp513
a(F1.7703665
I1
tp514
a(F1.8039685
I0
tp515
a(F1.6008945
I0
tp516
aa(lp517
(F1.6008945
I0
tp518
a(F1.6008945
I1
tp519
a(F1.8309965
I1
tp520
a(F1.8309965
I0
tp521
a(F1.6008945
I0
tp522
aa(lp523
(F1.6702905
I0
tp524
a(F1.6932995
I1
tp525
a(F1.7776715
I1
tp526
a(F1.8039685
I0
tp527
a(F1.6702905
I0
tp528
aa(lp529
(F1.6702905
I0
tp530
a(F1.6702905
I1
tp531
a(F1.9551795
I1
tp532
a(F1.9551795
I0
tp533
a(F1.6702905
I0
tp534
aa(lp535
(F1.6702905
I0
tp536
a(F1.6702905
I1
tp537
a(F1.9781885
I1
tp538
a(F2.0318805
I0
tp539
a(F1.6702905
I0
tp540
aa(lp541
(F1.7079095
I0
tp542
a(F1.7079095
I1
tp543
a(F2.1228255
I1
tp544
a(F2.1228255
I0
tp545
a(F1.7079095
I0
tp546
aa(lp547
(F1.7104665
I0
tp548
a(F1.7104665
I1
tp549
a(F1.7882635
I1
tp550
a(F1.8039685
I0
tp551
a(F1.7104665
I0
tp552
aa(lp553
(F1.7104665
I0
tp554
a(F1.7104665
I1
tp555
a(F1.9551795
I1
tp556
a(F1.9551795
I0
tp557
a(F1.7104665
I0
tp558
aa(lp559
(F1.8171175
I0
tp560
a(F1.8423185
I1
tp561
a(F1.9522575
I1
tp562
a(F1.9770935
I0
tp563
a(F1.8171175
I0
tp564
aa(lp565
(F1.8251535
I0
tp566
a(F1.8251535
I1
tp567
a(F1.8445105
I1
tp568
a(F1.8445105
I0
tp569
a(F1.8251535
I0
tp570
aa(lp571
(F1.8309965
I0
tp572
a(F1.8477975
I1
tp573
a(F1.9409345
I1
tp574
a(F1.9551795
I0
tp575
a(F1.8309965
I0
tp576
aa(lp577
(F1.8309965
I0
tp578
a(F1.8309965
I1
tp579
a(F2.2510255
I1
tp580
a(F2.2510255
I0
tp581
a(F1.8309965
I0
tp582
aa(lp583
(F1.9040455
I0
tp584
a(F1.9124455
I1
tp585
a(F1.9486045
I1
tp586
a(F1.9588315
I0
tp587
a(F1.9040455
I0
tp588
aa.